ccopy_reg
_reconstructor
p0
(cgoogle.oauth2.credentials
Credentials
p1
c__builtin__
object
p2
Ntp3
Rp4
(dp5
S'_token_uri'
p6
Vhttps://oauth2.googleapis.com/token
p7
sS'_scopes'
p8
(lp9
S'https://www.googleapis.com/auth/spreadsheets'
p10
aS'https://www.googleapis.com/auth/drive'
p11
aS'https://www.googleapis.com/auth/drive.file'
p12
asS'_id_token'
p13
NsS'token'
p14
Vya29.a0AfH6SMAA_PQcWPj517hSa4StPC04jQbN1s1pgEHrMR-aUpoIWLMl3jellCDPzAplAeUTGQSYPuswRZ_JQXs6Z2jud3SbftD8yQlZLaG6Gs0tpdLW7rSt45ESEquK9aDU24bMZRozEMoSbK0gCF6gdbCy8qS4vCdkISY6
p15
sS'_refresh_token'
p16
V1//0eJw5R_WwpTWJCgYIARAAGA4SNwF-L9Ir1_4bibh7ObVC-Ax3nNbc1ErqlYeg195vRvsExjDhUTH_wN-a9TwxzrG80m7Ui8CyxZU
p17
sS'_client_secret'
p18
VsORFBuNJHH4W631Ge1JL5rYx
p19
sS'_client_id'
p20
V1064977850881-slndbhjtqlt3lh5opbhqmul6o1dvlnai.apps.googleusercontent.com
p21
sS'expiry'
p22
cdatetime
datetime
p23
(S'\x07\xe4\x06\x08\x0b\x08\x1e\t\xa9:'
p24
tp25
Rp26
sb.